; Function Attrs: nounwind uwtable
define ptr @Dec_GraphFactorSop(ptr noundef %0, ptr noundef %1) local_unnamed_addr #0 {
  %3 = tail call ptr @Dec_Factor(ptr noundef %1) #7
  %4 = getelementptr inbounds nuw i8, ptr %3, i64 4
  %5 = load i32, ptr %4, align 4
  %6 = icmp sgt i32 %5, 0
  br i1 %6, label %.lr.ph, label %.critedge

.lr.ph:                                           ; preds = %2
  %7 = getelementptr i8, ptr %3, i64 16
  br label %8

8:                                                ; preds = %.lr.ph, %8
  %indvars.iv = phi i64 [ 0, %.lr.ph ], [ %indvars.iv.next, %8 ]
  %.val = load ptr, ptr %7, align 8
  %9 = trunc nuw nsw i64 %indvars.iv to i32
  %10 = tail call ptr @Hop_IthVar(ptr noundef %0, i32 noundef %9) #7
  %11 = getelementptr inbounds nuw %struct.Dec_Node_t_, ptr %.val, i64 %indvars.iv, i32 2
  store ptr %10, ptr %11, align 8
  %indvars.iv.next = add nuw nsw i64 %indvars.iv, 1
  %12 = load i32, ptr %4, align 4
  %13 = sext i32 %12 to i64
  %14 = icmp slt i64 %indvars.iv.next, %13
  br i1 %14, label %8, label %.critedge, !llvm.loop !13

.critedge:                                        ; preds = %8, %2
  %.lcssa13 = phi i32 [ %5, %2 ], [ %12, %8 ]
  %.val.i = load i32, ptr %3, align 8
  %.not.i = icmp eq i32 %.val.i, 0
  %15 = getelementptr i8, ptr %3, i64 24
  %.val31.i = load i32, ptr %15, align 8
  br i1 %.not.i, label %22, label %16

16:                                               ; preds = %.critedge
  %17 = getelementptr i8, ptr %0, i64 24
  %.val37.i = load ptr, ptr %17, align 8
  %18 = and i32 %.val31.i, 1
  %19 = ptrtoint ptr %.val37.i to i64
  %20 = zext nneg i32 %18 to i64
  %21 = xor i64 %19, %20
  br label %Dec_GraphToNetworkAig.exit

22:                                               ; preds = %.critedge
  %23 = lshr i32 %.val31.i, 1
  %24 = and i32 %23, 1073741823
  %.not38.i = icmp ult i32 %24, %.lcssa13
  br i1 %.not38.i, label %30, label %.preheader.i

.preheader.i:                                     ; preds = %22
  %25 = getelementptr inbounds nuw i8, ptr %3, i64 8
  %26 = load i32, ptr %25, align 8
  %27 = icmp slt i32 %.lcssa13, %26
  tail call void @llvm.assume(i1 %27)
  %28 = getelementptr i8, ptr %3, i64 16
  %29 = zext nneg i32 %.lcssa13 to i64
  br label %39

30:                                               ; preds = %22
  %31 = getelementptr i8, ptr %3, i64 16
  %.val35.i = load ptr, ptr %31, align 8
  %32 = zext nneg i32 %24 to i64
  %33 = getelementptr inbounds nuw %struct.Dec_Node_t_, ptr %.val35.i, i64 %32, i32 2
  %34 = load ptr, ptr %33, align 8
  %35 = and i32 %.val31.i, 1
  %36 = ptrtoint ptr %34 to i64
  %37 = zext nneg i32 %35 to i64
  %38 = xor i64 %36, %37
  br label %Dec_GraphToNetworkAig.exit

39:                                               ; preds = %39, %.preheader.i
  %indvars.iv.i = phi i64 [ %29, %.preheader.i ], [ %indvars.iv.next.i, %39 ]
  %.val34.i = load ptr, ptr %28, align 8
  %40 = getelementptr inbounds nuw %struct.Dec_Node_t_, ptr %.val34.i, i64 %indvars.iv.i
  %41 = load i32, ptr %40, align 8
  %42 = lshr i32 %41, 1
  %43 = and i32 %42, 1073741823
  %44 = zext nneg i32 %43 to i64
  %45 = getelementptr inbounds nuw %struct.Dec_Node_t_, ptr %.val34.i, i64 %44, i32 2
  %46 = load ptr, ptr %45, align 8
  %47 = and i32 %41, 1
  %48 = ptrtoint ptr %46 to i64
  %49 = zext nneg i32 %47 to i64
  %50 = xor i64 %49, %48
  %51 = inttoptr i64 %50 to ptr
  %52 = getelementptr inbounds nuw i8, ptr %40, i64 4
  %53 = load i32, ptr %52, align 4
  %54 = lshr i32 %53, 1
  %55 = and i32 %54, 1073741823
  %56 = zext nneg i32 %55 to i64
  %57 = getelementptr inbounds nuw %struct.Dec_Node_t_, ptr %.val34.i, i64 %56, i32 2
  %58 = load ptr, ptr %57, align 8
  %59 = and i32 %53, 1
  %60 = ptrtoint ptr %58 to i64
  %61 = zext nneg i32 %59 to i64
  %62 = xor i64 %61, %60
  %63 = inttoptr i64 %62 to ptr
  %64 = tail call ptr @Hop_And(ptr noundef %0, ptr noundef %51, ptr noundef %63) #7
  %65 = getelementptr inbounds nuw i8, ptr %40, i64 8
  store ptr %64, ptr %65, align 8
  %indvars.iv.next.i = add nuw nsw i64 %indvars.iv.i, 1
  %66 = load i32, ptr %25, align 8
  %67 = sext i32 %66 to i64
  %68 = icmp slt i64 %indvars.iv.next.i, %67
  br i1 %68, label %39, label %.critedge.i, !llvm.loop !12

.critedge.i:                                      ; preds = %39
  %.val27.i = load i32, ptr %15, align 8
  %69 = and i32 %.val27.i, 1
  %70 = ptrtoint ptr %64 to i64
  %71 = zext nneg i32 %69 to i64
  %72 = xor i64 %71, %70
  br label %Dec_GraphToNetworkAig.exit

Dec_GraphToNetworkAig.exit:                       ; preds = %16, %30, %.critedge.i
  %.024.in.i = phi i64 [ %21, %16 ], [ %38, %30 ], [ %72, %.critedge.i ]
  %73 = getelementptr inbounds nuw i8, ptr %3, i64 16
  %74 = load ptr, ptr %73, align 8
  %.not.i12 = icmp eq ptr %74, null
  br i1 %.not.i12, label %Dec_GraphFree.exit, label %75

75:                                               ; preds = %Dec_GraphToNetworkAig.exit
  tail call void @free(ptr noundef nonnull %74) #7
  br label %Dec_GraphFree.exit

Dec_GraphFree.exit:                               ; preds = %Dec_GraphToNetworkAig.exit, %75
  %.024.i = inttoptr i64 %.024.in.i to ptr
  tail call void @free(ptr noundef nonnull %3) #7
  ret ptr %.024.i
}